(dp0
S'N_sample'
p1
cnumpy.core.multiarray
_reconstruct
p2
(cnumpy
ndarray
p3
(I0
tp4
S'b'
p5
tp6
Rp7
(I1
(I1
tp8
cnumpy
dtype
p9
(S'f8'
p10
I0
I1
tp11
Rp12
(I3
S'<'
p13
NNNI-1
I-1
I0
tp14
bI00
S'\x00\x00\x00\x00\x00\x00\x08@'
p15
tp16
bsS'skip'
p17
g2
(g3
(I0
tp18
g5
tp19
Rp20
(I1
(I1
tp21
g9
(S'i8'
p22
I0
I1
tp23
Rp24
(I3
S'<'
p25
NNNI-1
I-1
I0
tp26
bI00
S'\x01\x00\x00\x00\x00\x00\x00\x00'
p27
tp28
bsS'Finite difference'
p29
g2
(g3
(I0
tp30
g5
tp31
Rp32
(I1
(I1
I1
I1
tp33
g12
I00
S'A\x98w\xfbu\xe2q?'
p34
tp35
bsS'Gaussian'
p36
g2
(g3
(I0
tp37
g5
tp38
Rp39
(I1
(I1
I1
I1
tp40
g12
I00
S'\xed\xdc\xed!\x97\nl?'
p41
tp42
bsS'delta'
p43
g2
(g3
(I0
tp44
g5
tp45
Rp46
(I1
(I1
tp47
g12
I00
S'\xfc\xa9\xf1\xd2MbP?'
p48
tp49
bsS'Polynomial'
p50
g2
(g3
(I0
tp51
g5
tp52
Rp53
(I1
(I1
I1
I1
tp54
g12
I00
S"\xfd\xe1LO'\xdcg?"
p55
tp56
bsS'Spline'
p57
g2
(g3
(I0
tp58
g5
tp59
Rp60
(I1
(I1
I1
I1
tp61
g12
I00
S"\x90\xe8LO'\xdcg?"
p62
tp63
bs.