(dp0
S'Polynomial'
p1
cnumpy.core.multiarray
_reconstruct
p2
(cnumpy
ndarray
p3
(I0
tp4
S'b'
p5
tp6
Rp7
(I1
(I1
I1
I1
tp8
cnumpy
dtype
p9
(S'f8'
p10
I0
I1
tp11
Rp12
(I3
S'<'
p13
NNNI-1
I-1
I0
tp14
bI00
S'\xb64\xa6\x82\xa4\xd0\x8a?'
p15
tp16
bsS'Gaussian'
p17
g2
(g3
(I0
tp18
g5
tp19
Rp20
(I1
(I1
I1
I1
tp21
g12
I00
S'\x1d\xa5+w\xd3A\x0b@'
p22
tp23
bsS'Spline'
p24
g2
(g3
(I0
tp25
g5
tp26
Rp27
(I1
(I1
I1
I1
tp28
g12
I00
S'\x8d<\xa8\x82\xa4\xd0\x8a?'
p29
tp30
bsS'Finite difference'
p31
g2
(g3
(I0
tp32
g5
tp33
Rp34
(I1
(I1
I1
I1
tp35
g12
I00
S'\xfbg/\x9d&\x856@'
p36
tp37
bs.